; Function Attrs: mustprogress nounwind uwtable
define void @_ZN18OpenImageIO_v2_6_011ImageOutput12impl_deleterEPNS0_4ImplE(ptr noundef %impl) #3 align 2 personality ptr @__gxx_personality_v0 {
entry:
  %isnull = icmp eq ptr %impl, null
  br i1 %isnull, label %delete.end, label %delete.notnull

delete.notnull:                                   ; preds = %entry
  %m_io_local.i = getelementptr inbounds i8, ptr %impl, i64 24
  %0 = load ptr, ptr %m_io_local.i, align 8
  %cmp.not.i.i = icmp eq ptr %0, null
  br i1 %cmp.not.i.i, label %_ZNSt10unique_ptrIN18OpenImageIO_v2_6_010Filesystem7IOProxyESt14default_deleteIS2_EED2Ev.exit.i, label %_ZNKSt14default_deleteIN18OpenImageIO_v2_6_010Filesystem7IOProxyEEclEPS2_.exit.i.i

_ZNKSt14default_deleteIN18OpenImageIO_v2_6_010Filesystem7IOProxyEEclEPS2_.exit.i.i: ; preds = %delete.notnull
  %vtable.i.i.i = load ptr, ptr %0, align 8
  %vfn.i.i.i = getelementptr inbounds i8, ptr %vtable.i.i.i, i64 8
  %1 = load ptr, ptr %vfn.i.i.i, align 8
  tail call void %1(ptr noundef nonnull align 8 dereferenceable(88) %0) #25
  br label %_ZNSt10unique_ptrIN18OpenImageIO_v2_6_010Filesystem7IOProxyESt14default_deleteIS2_EED2Ev.exit.i

_ZNSt10unique_ptrIN18OpenImageIO_v2_6_010Filesystem7IOProxyESt14default_deleteIS2_EED2Ev.exit.i: ; preds = %_ZNKSt14default_deleteIN18OpenImageIO_v2_6_010Filesystem7IOProxyEEclEPS2_.exit.i.i, %delete.notnull
  store ptr null, ptr %m_io_local.i, align 8
  invoke void @_ZN5boost6detail12set_tss_dataEPKvPFvPFvPvES3_ES5_S3_b(ptr noundef nonnull %impl, ptr noundef null, ptr noundef null, ptr noundef null, i1 noundef zeroext true)
          to label %_ZN18OpenImageIO_v2_6_011ImageOutput4ImplD2Ev.exit unwind label %terminate.lpad.i.i

terminate.lpad.i.i:                               ; preds = %_ZNSt10unique_ptrIN18OpenImageIO_v2_6_010Filesystem7IOProxyESt14default_deleteIS2_EED2Ev.exit.i
  %2 = landingpad { ptr, i32 }
          catch ptr null
  %3 = extractvalue { ptr, i32 } %2, 0
  tail call void @__clang_call_terminate(ptr %3) #27
  unreachable

_ZN18OpenImageIO_v2_6_011ImageOutput4ImplD2Ev.exit: ; preds = %_ZNSt10unique_ptrIN18OpenImageIO_v2_6_010Filesystem7IOProxyESt14default_deleteIS2_EED2Ev.exit.i
  tail call void @_ZdlPv(ptr noundef nonnull %impl) #26
  br label %delete.end

delete.end:                                       ; preds = %_ZN18OpenImageIO_v2_6_011ImageOutput4ImplD2Ev.exit, %entry
  ret void
}